Certificate:
    Data:
        Version: 1 (0x0)
        Serial Number: 2 (0x2)
    Signature Algorithm: sha1WithRSAEncryption
        Issuer: C=FR, ST=Some-State, O=CAShinken, CN=CAShinken Certificate Master/emailAddress=none@localhost
        Validity
            Not Before: Apr 17 09:23:00 2014 GMT
            Not After : Apr 14 09:23:00 2024 GMT
        Subject: C=FR, ST=Some-State, O=CAShinken, OU=MAIN, CN=shinken
        Subject Public Key Info:
            Public Key Algorithm: rsaEncryption
                Public-Key: (2048 bit)
                Modulus:
                    00:ec:11:44:a8:e2:a2:1f:32:ea:ca:33:bb:a8:71:
                    e8:fd:37:2c:b1:73:e2:1e:a0:db:b4:b4:cb:ed:a0:
                    d7:80:31:46:25:d0:78:16:0c:59:9f:bf:27:03:69:
                    c2:99:de:42:6f:75:e9:9d:23:b7:7d:65:b6:66:cc:
                    17:2d:3d:3d:94:54:56:04:52:b3:50:53:e5:2b:97:
                    80:57:4e:58:43:7f:17:a5:8c:80:e8:a8:32:ec:db:
                    ea:61:54:d5:99:89:2d:4f:03:ca:f6:60:d7:3a:dc:
                    07:3c:16:bd:07:7e:53:9c:0e:e6:2a:b7:78:a6:ce:
                    6e:5f:69:02:a4:03:7c:6c:d0:08:e1:3c:83:ce:ca:
                    79:59:c7:4f:55:82:0d:59:2d:d5:99:5a:6a:81:fa:
                    e4:c8:b0:1a:72:c5:28:1a:57:98:7a:d0:d2:5e:0a:
                    8e:7e:75:fd:a9:8f:95:8a:72:42:29:b1:ed:f6:8d:
                    c7:36:47:a6:b9:4f:2a:64:84:43:06:5d:89:63:cb:
                    cb:fb:57:a3:b7:c0:85:fe:00:84:d9:be:31:f4:ab:
                    77:b2:d8:ef:79:78:9b:ef:45:8d:ea:41:80:ed:84:
                    10:4a:3d:b5:0a:0f:54:78:9e:c8:ea:fb:9f:88:76:
                    fb:bf:23:80:26:14:12:f1:49:31:b5:8b:32:a3:a1:
                    ed:bb
                Exponent: 65537 (0x10001)
    Signature Algorithm: sha1WithRSAEncryption
         18:7a:c2:89:67:35:1c:7d:de:58:be:ef:c1:48:01:48:ca:35:
         e6:77:c7:64:03:cd:4c:ec:e8:5e:74:dc:0d:fb:fa:c0:e6:31:
         03:9c:79:5b:cd:6a:8b:54:fb:e7:82:b0:29:87:73:5c:6f:25:
         9c:20:e2:1f:fd:39:d7:ae:25:70:8a:33:83:bd:b7:1c:d2:fb:
         d4:f0:e9:ae:63:74:ec:36:f7:4c:7a:93:f4:7e:d6:66:a3:95:
         2f:8a:41:12:75:c1:cb:65:54:81:92:07:41:2e:d6:6c:0e:ae:
         a1:a6:bb:c9:e8:be:48:a4:ec:f2:eb:55:67:98:6e:c1:8b:1a:
         13:09
-----BEGIN CERTIFICATE-----
MIICxjCCAi8CAQIwDQYJKoZIhvcNAQEFBQAwfDELMAkGA1UEBhMCRlIxEzARBgNV
BAgTClNvbWUtU3RhdGUxEjAQBgNVBAoTCUNBU2hpbmtlbjElMCMGA1UEAxMcQ0FT
aGlua2VuIENlcnRpZmljYXRlIE1hc3RlcjEdMBsGCSqGSIb3DQEJARYObm9uZUBs
b2NhbGhvc3QwHhcNMTQwNDE3MDkyMzAwWhcNMjQwNDE0MDkyMzAwWjBXMQswCQYD
VQQGEwJGUjETMBEGA1UECBMKU29tZS1TdGF0ZTESMBAGA1UEChMJQ0FTaGlua2Vu
MQ0wCwYDVQQLEwRNQUlOMRAwDgYDVQQDEwdzaGlua2VuMIIBIjANBgkqhkiG9w0B
AQEFAAOCAQ8AMIIBCgKCAQEA7BFEqOKiHzLqyjO7qHHo/TcssXPiHqDbtLTL7aDX
gDFGJdB4FgxZn78nA2nCmd5Cb3XpnSO3fWW2ZswXLT09lFRWBFKzUFPlK5eAV05Y
Q38XpYyA6Kgy7NvqYVTVmYktTwPK9mDXOtwHPBa9B35TnA7mKrd4ps5uX2kCpAN8
bNAI4TyDzsp5WcdPVYINWS3VmVpqgfrkyLAacsUoGleYetDSXgqOfnX9qY+VinJC
KbHt9o3HNkemuU8qZIRDBl2JY8vL+1ejt8CF/gCE2b4x9Kt3stjveXib70WN6kGA
7YQQSj21Cg9UeJ7I6vufiHb7vyOAJhQS8UkxtYsyo6HtuwIDAQABMA0GCSqGSIb3
DQEBBQUAA4GBABh6wolnNRx93li+78FIAUjKNeZ3x2QDzUzs6F503A37+sDmMQOc
eVvNaotU++eCsCmHc1xvJZwg4h/9OdeuJXCKM4O9txzS+9Tw6a5jdOw290x6k/R+
1majlS+KQRJ1wctlVIGSB0Eu1mwOrqGmu8novkik7PLrVWeYbsGLGhMJ
-----END CERTIFICATE-----
