-----BEGIN RSA PRIVATE KEY-----
MIIEowIBAAKCAQEAvw3smzbZuY3u0/JNPbYv3iNMlbYoSBCFX6yToqCIsgRS8JxF
SAUd44CQFvry+HxB0D2/mhDkCzWgQWoNZfmU6NihDg6DreTvmloz6J9ucu+uXUO6
9CFmexfrj7nsHw3Z46fA/beTttsJ8k1NhDHD9tloUrI5rNCFVL0C0VyJ7YNigVvo
MPn9n88bR/cLNeO9Jx3acO8rjEuLE8kiXao1k3WwgBIk1fK/JKOMedmqA7V7ziK7
o2pYsDBWs87hvOv2vWWr3BmeTeqvx6QFJKEGfC5BLPXIJCySZ4sda3idestseFjl
n7kfwRndPmYECmM8qCu97piiE0RcdaUtk3tI9wIDAQABAoIBAGUfeZyt64/LEB4e
ocOIKs3o4SBcyfVayT1amsn5LmEK6Ntx2znDe45u/dUr/m6HVk5iYIeraQiF2czF
1VGkSKz1/Ej0Zb4k7q1EETWPLWaodiHnN40AIL4GaygnwFKvgiR9JikkgYrHZPxa
7iyKKq79Y7phmyVdOTUg1dz6ngaYGQvlalyUDv1WyFdcj6O78ImI4KjC/l8ekC8I
/WycWjbtbJPsS4OYXOQz9KW1uCo0aebNM5zJVdfmp+4NJtxSO6TnqEoECP1mw2BS
wi+6xoKVVBJyKeIHoSP1xn8G6EKl98iDIrslz+wA1u8SOJIDY/Om7bo7odmhAzp+
nhJOGAECgYEA8Tl4fSfqhEJO5PX9B/NF9QaANmqFM7QGCQK4axJzK04XDafEj2IP
3B0A247teN6F5+wXNgsC1IhngzlCzcYm9qKnHfbOMZ6+8yYYV6qsDPZWlUoSdUCi
Yd+A9GPnX3eifgrn35xBAr59fkRpYu4Rsh0hrV3SZ85nYZ//P7isic8CgYEAysHC
bWHegMtGEwcTs+hRHZPpX6TaF7YM88vri+qrp2muq1Y67l5d7IBtIo76nRJvqlqN
sERaY8rDKNEQLLDqnAl66hrQAe2jOrB/JHveYAlqZbBNn7qN8dzjlrEIc1CEIZFg
LEjWfx9MhsVBS9MjU9HOxxxG9wq/Aqk8a15CoFkCgYEA16h4tvPbrziUzg+5ksUE
cyXHtF6RDYNRrfaXp2oMOtgKtjOaAFI8OZ5YaPIkDl5qusiQi8lWU2pLmL61ocAY
j4ElBR3kg+oXbsxNEPtN7BzDlZ5uWBNb2UJ3SIaUkP4k8KiRWpGYcXqaOSuySDbs
7R8sP5FUjWezd00SZwaUgnMCgYBPw4Xvbg8Qb+dzWNdhcUVn82Zd4AaESXQy/Mf/
VSSOSb8TXGr2l10vyx4j+EeTP0t6owEWlO1SUNQR3J0WV8sT847NRhsKhygt0H1U
Jv7GnS2kL4V6DvQEcDeAcsi2RLiWVBCXm1f2zqNWaYdUgw1kzicgoXkxeqLGMzm3
q29ekQKBgHGYjB51j0NwV6RgrEGPpOpBF6yrSkwwE7Ysjy01NNYf5AS7HneCM4ND
vmYGh+NDTLYw62ogQRbUKL4p70ibh6nng90Y/cAewr3aS5z+bFxuJdAH+/nTmCFy
MHjdMxdflt7mA2Sxg0S22UDBSV+PGtslNRKWKmFKL17Tub8uMx5l
-----END RSA PRIVATE KEY-----
Certificate:
    Data:
        Version: 1 (0x0)
        Serial Number: 3 (0x3)
        Signature Algorithm: sha1WithRSAEncryption
        Issuer: C=FR, ST=Some-State, O=CAShinken, CN=CAShinken Certificate Master/emailAddress=none@localhost
        Validity
            Not Before: Jan 12 12:54:43 2011 GMT
            Not After : Jan  9 12:54:43 2021 GMT
        Subject: C=FR, ST=Some-State, O=CAShinken, OU=MAIN, CN=localhost
        Subject Public Key Info:
            Public Key Algorithm: rsaEncryption
            RSA Public Key: (2048 bit)
                Modulus (2048 bit):
                    00:bf:0d:ec:9b:36:d9:b9:8d:ee:d3:f2:4d:3d:b6:
                    2f:de:23:4c:95:b6:28:48:10:85:5f:ac:93:a2:a0:
                    88:b2:04:52:f0:9c:45:48:05:1d:e3:80:90:16:fa:
                    f2:f8:7c:41:d0:3d:bf:9a:10:e4:0b:35:a0:41:6a:
                    0d:65:f9:94:e8:d8:a1:0e:0e:83:ad:e4:ef:9a:5a:
                    33:e8:9f:6e:72:ef:ae:5d:43:ba:f4:21:66:7b:17:
                    eb:8f:b9:ec:1f:0d:d9:e3:a7:c0:fd:b7:93:b6:db:
                    09:f2:4d:4d:84:31:c3:f6:d9:68:52:b2:39:ac:d0:
                    85:54:bd:02:d1:5c:89:ed:83:62:81:5b:e8:30:f9:
                    fd:9f:cf:1b:47:f7:0b:35:e3:bd:27:1d:da:70:ef:
                    2b:8c:4b:8b:13:c9:22:5d:aa:35:93:75:b0:80:12:
                    24:d5:f2:bf:24:a3:8c:79:d9:aa:03:b5:7b:ce:22:
                    bb:a3:6a:58:b0:30:56:b3:ce:e1:bc:eb:f6:bd:65:
                    ab:dc:19:9e:4d:ea:af:c7:a4:05:24:a1:06:7c:2e:
                    41:2c:f5:c8:24:2c:92:67:8b:1d:6b:78:9d:7a:cb:
                    6c:78:58:e5:9f:b9:1f:c1:19:dd:3e:66:04:0a:63:
                    3c:a8:2b:bd:ee:98:a2:13:44:5c:75:a5:2d:93:7b:
                    48:f7
                Exponent: 65537 (0x10001)
    Signature Algorithm: sha1WithRSAEncryption
        b1:ca:15:5a:86:94:6c:fd:e0:46:d9:ae:13:e7:a1:8a:9d:5e:
        e0:37:36:b6:c9:67:1f:eb:30:4c:47:60:00:5b:c4:41:39:d3:
        70:a3:8b:98:ca:c4:29:21:ee:2d:c8:cd:47:f6:0d:09:04:3c:
        dc:fa:6e:dd:b5:cb:26:38:1a:31:5c:48:83:cc:ce:cd:fe:3b:
        4d:6d:73:5d:20:93:42:3c:d5:5a:8f:24:33:da:e5:f2:7e:08:
        fd:03:ab:1d:6d:9c:11:6d:f9:99:d5:08:5c:22:36:9a:0b:4e:
        8c:59:8c:4e:be:55:b4:32:9c:1e:ce:05:e2:20:ab:1f:c3:03:
        c6:94
-----BEGIN CERTIFICATE-----
MIICyDCCAjECAQMwDQYJKoZIhvcNAQEFBQAwfDELMAkGA1UEBhMCRlIxEzARBgNV
BAgTClNvbWUtU3RhdGUxEjAQBgNVBAoTCUNBU2hpbmtlbjElMCMGA1UEAxMcQ0FT
aGlua2VuIENlcnRpZmljYXRlIE1hc3RlcjEdMBsGCSqGSIb3DQEJARYObm9uZUBs
b2NhbGhvc3QwHhcNMTEwMTEyMTI1NDQzWhcNMjEwMTA5MTI1NDQzWjBZMQswCQYD
VQQGEwJGUjETMBEGA1UECBMKU29tZS1TdGF0ZTESMBAGA1UEChMJQ0FTaGlua2Vu
MQ0wCwYDVQQLEwRNQUlOMRIwEAYDVQQDEwlsb2NhbGhvc3QwggEiMA0GCSqGSIb3
DQEBAQUAA4IBDwAwggEKAoIBAQC/DeybNtm5je7T8k09ti/eI0yVtihIEIVfrJOi
oIiyBFLwnEVIBR3jgJAW+vL4fEHQPb+aEOQLNaBBag1l+ZTo2KEODoOt5O+aWjPo
n25y765dQ7r0IWZ7F+uPuewfDdnjp8D9t5O22wnyTU2EMcP22WhSsjms0IVUvQLR
XIntg2KBW+gw+f2fzxtH9ws1470nHdpw7yuMS4sTySJdqjWTdbCAEiTV8r8ko4x5
2aoDtXvOIrujaliwMFazzuG86/a9ZavcGZ5N6q/HpAUkoQZ8LkEs9cgkLJJnix1r
eJ16y2x4WOWfuR/BGd0+ZgQKYzyoK73umKITRFx1pS2Te0j3AgMBAAEwDQYJKoZI
hvcNAQEFBQADgYEAscoVWoaUbP3gRtmuE+ehip1e4Dc2tslnH+swTEdgAFvEQTnT
cKOLmMrEKSHuLcjNR/YNCQQ83Ppu3bXLJjgaMVxIg8zOzf47TW1zXSCTQjzVWo8k
M9rl8n4I/QOrHW2cEW35mdUIXCI2mgtOjFmMTr5VtDKcHs4F4iCrH8MDxpQ=
-----END CERTIFICATE-----
