Certificate:
    Data:
        Version: 3 (0x2)
        Serial Number:
            ec:5b:5d:da:d5:1b:e4:a8
        Signature Algorithm: sha1WithRSAEncryption
        Issuer: C=FR, ST=Some-State, O=CAShinken, CN=CAShinken Certificate Master/emailAddress=none@localhost
        Validity
            Not Before: Jan 12 10:04:58 2011 GMT
            Not After : Jan 11 10:04:58 2014 GMT
        Subject: C=FR, ST=Some-State, O=CAShinken, CN=CAShinken Certificate Master/emailAddress=none@localhost
        Subject Public Key Info:
            Public Key Algorithm: rsaEncryption
            RSA Public Key: (1024 bit)
                Modulus (1024 bit):
                    00:c1:33:c6:fb:5b:33:fb:7f:26:90:0e:2d:5a:41:
                    ba:49:5d:3a:68:62:aa:99:0d:f9:ad:44:2c:4d:c2:
                    ae:6a:28:3e:5f:29:0f:68:ef:13:f3:b2:43:55:fa:
                    e7:71:74:29:19:e6:03:3f:c8:e1:f2:76:00:ed:ef:
                    5b:92:1b:c6:92:db:56:f9:64:6c:97:f6:90:e3:94:
                    42:14:ea:9c:f2:5a:a5:b8:d0:8f:b1:3b:79:2a:fe:
                    a7:d9:75:c9:38:72:5c:27:c0:c3:b6:7f:52:af:7a:
                    2a:c3:35:1a:98:b7:ca:b0:5b:7e:3f:ce:bf:9c:37:
                    69:46:ca:35:b2:38:c0:5b:f9
                Exponent: 65537 (0x10001)
        X509v3 extensions:
            X509v3 Subject Key Identifier: 
                6F:9F:42:67:73:D0:3C:91:BC:39:EF:95:53:36:3A:B9:E3:09:53:DC
            X509v3 Authority Key Identifier: 
                keyid:6F:9F:42:67:73:D0:3C:91:BC:39:EF:95:53:36:3A:B9:E3:09:53:DC
                DirName:/C=FR/ST=Some-State/O=CAShinken/CN=CAShinken Certificate Master/emailAddress=none@localhost
                serial:EC:5B:5D:DA:D5:1B:E4:A8

            X509v3 Basic Constraints: 
                CA:TRUE
    Signature Algorithm: sha1WithRSAEncryption
        25:ba:e5:78:da:29:0a:ce:97:0e:de:34:9f:e4:80:2b:aa:b5:
        91:24:e0:7c:69:89:a1:a4:9a:be:cf:63:39:6a:1f:6b:71:fa:
        7f:25:b5:34:fe:ae:20:9b:d9:47:66:9f:60:53:ef:d5:8f:70:
        fb:b7:fc:fe:8c:6d:dc:81:1d:45:5a:c2:2f:a7:fa:f6:b3:28:
        52:75:c9:09:b7:c8:d1:40:cc:08:5d:a2:b1:fb:8a:1a:6c:ad:
        51:80:22:20:97:c2:cb:3f:8d:f4:c6:29:55:68:e6:ec:53:bd:
        bd:a4:3c:94:af:54:48:f8:8c:4f:3f:8b:91:e7:1b:cd:26:59:
        f9:2d
-----BEGIN CERTIFICATE-----
MIIDWTCCAsKgAwIBAgIJAOxbXdrVG+SoMA0GCSqGSIb3DQEBBQUAMHwxCzAJBgNV
BAYTAkZSMRMwEQYDVQQIEwpTb21lLVN0YXRlMRIwEAYDVQQKEwlDQVNoaW5rZW4x
JTAjBgNVBAMTHENBU2hpbmtlbiBDZXJ0aWZpY2F0ZSBNYXN0ZXIxHTAbBgkqhkiG
9w0BCQEWDm5vbmVAbG9jYWxob3N0MB4XDTExMDExMjEwMDQ1OFoXDTE0MDExMTEw
MDQ1OFowfDELMAkGA1UEBhMCRlIxEzARBgNVBAgTClNvbWUtU3RhdGUxEjAQBgNV
BAoTCUNBU2hpbmtlbjElMCMGA1UEAxMcQ0FTaGlua2VuIENlcnRpZmljYXRlIE1h
c3RlcjEdMBsGCSqGSIb3DQEJARYObm9uZUBsb2NhbGhvc3QwgZ8wDQYJKoZIhvcN
AQEBBQADgY0AMIGJAoGBAMEzxvtbM/t/JpAOLVpBukldOmhiqpkN+a1ELE3Crmoo
Pl8pD2jvE/OyQ1X653F0KRnmAz/I4fJ2AO3vW5IbxpLbVvlkbJf2kOOUQhTqnPJa
pbjQj7E7eSr+p9l1yThyXCfAw7Z/Uq96KsM1Gpi3yrBbfj/Ov5w3aUbKNbI4wFv5
AgMBAAGjgeIwgd8wHQYDVR0OBBYEFG+fQmdz0DyRvDnvlVM2OrnjCVPcMIGvBgNV
HSMEgacwgaSAFG+fQmdz0DyRvDnvlVM2OrnjCVPcoYGApH4wfDELMAkGA1UEBhMC
RlIxEzARBgNVBAgTClNvbWUtU3RhdGUxEjAQBgNVBAoTCUNBU2hpbmtlbjElMCMG
A1UEAxMcQ0FTaGlua2VuIENlcnRpZmljYXRlIE1hc3RlcjEdMBsGCSqGSIb3DQEJ
ARYObm9uZUBsb2NhbGhvc3SCCQDsW13a1RvkqDAMBgNVHRMEBTADAQH/MA0GCSqG
SIb3DQEBBQUAA4GBACW65XjaKQrOlw7eNJ/kgCuqtZEk4HxpiaGkmr7PYzlqH2tx
+n8ltTT+riCb2Udmn2BT79WPcPu3/P6MbdyBHUVawi+n+vazKFJ1yQm3yNFAzAhd
orH7ihpsrVGAIiCXwss/jfTGKVVo5uxTvb2kPJSvVEj4jE8/i5HnG80mWfkt
-----END CERTIFICATE-----
