Certificate:
    Data:
        Version: 3 (0x2)
        Serial Number:
            ec:5b:5d:da:d5:1b:e4:a9
        Signature Algorithm: sha1WithRSAEncryption
        Issuer: C=FR, ST=Some-State, O=CAShinken, CN=CAShinken Certificate Master/emailAddress=none@localhost
        Validity
            Not Before: Jan 12 10:08:37 2011 GMT
            Not After : Jan 12 10:08:37 2012 GMT
        Subject: C=FR, ST=Some-State, O=M2Crypto, CN=localhost/emailAddress=none@localhost
        Subject Public Key Info:
            Public Key Algorithm: rsaEncryption
            RSA Public Key: (1024 bit)
                Modulus (1024 bit):
                    00:b9:43:24:01:ff:89:c5:dd:29:5f:a7:90:8e:12:
                    6d:bc:c5:16:98:f3:e0:46:5d:5b:6e:ea:89:fb:36:
                    11:6d:15:2e:d0:d5:3d:ed:e7:5a:fc:2c:d6:9e:f6:
                    23:04:67:38:fa:89:c9:b3:d3:4e:cf:35:71:94:2b:
                    d7:d5:43:2e:d0:b5:bd:91:78:32:4c:f2:bd:40:3b:
                    38:1f:d6:69:50:28:96:0a:24:4e:4b:6f:7d:43:90:
                    97:f8:05:12:09:a9:49:d9:9d:4f:69:4a:6b:03:6a:
                    0a:d0:dc:3f:7c:19:f2:51:b1:2f:f4:6a:72:7c:5a:
                    67:f9:1f:8e:5e:55:70:79:75
                Exponent: 65537 (0x10001)
        X509v3 extensions:
            X509v3 Basic Constraints: 
                CA:FALSE
            Netscape Comment: 
                OpenSSL Generated Certificate
            X509v3 Subject Key Identifier: 
                D1:D4:DE:6D:F4:11:69:66:C8:ED:AC:57:E2:FF:AB:66:E1:08:4E:72
            X509v3 Authority Key Identifier: 
                keyid:6F:9F:42:67:73:D0:3C:91:BC:39:EF:95:53:36:3A:B9:E3:09:53:DC

    Signature Algorithm: sha1WithRSAEncryption
        69:8a:93:33:a9:00:d5:05:4e:bf:b4:9a:8c:6b:c9:b6:b9:6d:
        66:7d:0c:25:c2:3f:f7:a1:61:2b:40:98:c2:1f:26:17:cf:d5:
        76:16:76:a6:72:1b:0f:2a:1b:a5:b9:ec:89:57:88:d0:06:f4:
        48:b3:5d:92:84:ea:fa:f4:e3:12:7b:d9:8a:0c:17:1b:db:99:
        b3:42:e1:8b:b2:d0:4a:d0:c2:ae:58:67:b6:6d:5b:a4:63:e4:
        00:85:30:79:51:5c:3c:35:a0:03:b0:44:9f:05:a1:fa:d9:56:
        f6:2e:af:75:ec:42:b2:45:21:d9:21:71:13:66:ae:94:ab:f3:
        94:b0
-----BEGIN CERTIFICATE-----
MIIC3TCCAkagAwIBAgIJAOxbXdrVG+SpMA0GCSqGSIb3DQEBBQUAMHwxCzAJBgNV
BAYTAkZSMRMwEQYDVQQIEwpTb21lLVN0YXRlMRIwEAYDVQQKEwlDQVNoaW5rZW4x
JTAjBgNVBAMTHENBU2hpbmtlbiBDZXJ0aWZpY2F0ZSBNYXN0ZXIxHTAbBgkqhkiG
9w0BCQEWDm5vbmVAbG9jYWxob3N0MB4XDTExMDExMjEwMDgzN1oXDTEyMDExMjEw
MDgzN1owaDELMAkGA1UEBhMCRlIxEzARBgNVBAgTClNvbWUtU3RhdGUxETAPBgNV
BAoTCE0yQ3J5cHRvMRIwEAYDVQQDEwlsb2NhbGhvc3QxHTAbBgkqhkiG9w0BCQEW
Dm5vbmVAbG9jYWxob3N0MIGfMA0GCSqGSIb3DQEBAQUAA4GNADCBiQKBgQC5QyQB
/4nF3Slfp5COEm28xRaY8+BGXVtu6on7NhFtFS7Q1T3t51r8LNae9iMEZzj6icmz
007PNXGUK9fVQy7Qtb2ReDJM8r1AOzgf1mlQKJYKJE5Lb31DkJf4BRIJqUnZnU9p
SmsDagrQ3D98GfJRsS/0anJ8Wmf5H45eVXB5dQIDAQABo3sweTAJBgNVHRMEAjAA
MCwGCWCGSAGG+EIBDQQfFh1PcGVuU1NMIEdlbmVyYXRlZCBDZXJ0aWZpY2F0ZTAd
BgNVHQ4EFgQU0dTebfQRaWbI7axX4v+rZuEITnIwHwYDVR0jBBgwFoAUb59CZ3PQ
PJG8Oe+VUzY6ueMJU9wwDQYJKoZIhvcNAQEFBQADgYEAaYqTM6kA1QVOv7SajGvJ
trltZn0MJcI/96FhK0CYwh8mF8/VdhZ2pnIbDyobpbnsiVeI0Ab0SLNdkoTq+vTj
EnvZigwXG9uZs0Lhi7LQStDCrlhntm1bpGPkAIUweVFcPDWgA7BEnwWh+tlW9i6v
dexCskUh2SFxE2aulKvzlLA=
-----END CERTIFICATE-----
